target datalayout = "e-m:e-p270:32:32-p271:32:32-p272:64:64-i64:64-i128:128-f80:128-n8:16:32:64-S128"
target triple = "x86_64-pc-linux-gnu"

%struct.Vec_Int_t_ = type { i32, i32, ptr }
%struct.Vec_Ptr_t_ = type { i32, i32, ptr }

; Function Attrs: inlinehint nounwind uwtable
define internal i32 @Vec_IntSize(ptr noundef %0) #3 {
  %2 = alloca ptr, align 8
  store ptr %0, ptr %2, align 8, !tbaa !43
  %3 = load ptr, ptr %2, align 8, !tbaa !43
  %4 = getelementptr inbounds nuw %struct.Vec_Int_t_, ptr %3, i32 0, i32 1
  %5 = load i32, ptr %4, align 4, !tbaa !44
  ret i32 %5
}

; Function Attrs: inlinehint nounwind uwtable
define internal ptr @Vec_PtrEntry(ptr noundef %0, i32 noundef %1) #3 {
  %3 = alloca ptr, align 8
  %4 = alloca i32, align 4
  store ptr %0, ptr %3, align 8, !tbaa !73
  store i32 %1, ptr %4, align 4, !tbaa !42
  %5 = load ptr, ptr %3, align 8, !tbaa !73
  %6 = getelementptr inbounds nuw %struct.Vec_Ptr_t_, ptr %5, i32 0, i32 2
  %7 = load ptr, ptr %6, align 8, !tbaa !82
  %8 = load i32, ptr %4, align 4, !tbaa !42
  %9 = sext i32 %8 to i64
  %10 = getelementptr inbounds ptr, ptr %7, i64 %9
  %11 = load ptr, ptr %10, align 8, !tbaa !84
  ret ptr %11
}

; Function Attrs: inlinehint nounwind uwtable
define internal i32 @Vec_PtrSize(ptr noundef %0) #3 {
  %2 = alloca ptr, align 8
  store ptr %0, ptr %2, align 8, !tbaa !73
  %3 = load ptr, ptr %2, align 8, !tbaa !73
  %4 = getelementptr inbounds nuw %struct.Vec_Ptr_t_, ptr %3, i32 0, i32 1
  %5 = load i32, ptr %4, align 4, !tbaa !79
  ret i32 %5
}

; Function Attrs: nounwind uwtable
define i32 @Vec_IntCountNonTrivial(ptr noundef %0, ptr noundef %1) #0 {
  %3 = alloca ptr, align 8
  %4 = alloca ptr, align 8
  %5 = alloca ptr, align 8
  %6 = alloca i32, align 4
  %7 = alloca i32, align 4
  store ptr %0, ptr %3, align 8, !tbaa !73
  store ptr %1, ptr %4, align 8, !tbaa !64
  call void @llvm.lifetime.start.p0(i64 8, ptr %5) #12
  call void @llvm.lifetime.start.p0(i64 4, ptr %6) #12
  call void @llvm.lifetime.start.p0(i64 4, ptr %7) #12
  store i32 0, ptr %7, align 4, !tbaa !42
  %8 = load ptr, ptr %4, align 8, !tbaa !64
  store i32 0, ptr %8, align 4, !tbaa !42
  store i32 0, ptr %6, align 4, !tbaa !42
  br label %9

9:                                                ; preds = %33, %2
  %10 = load i32, ptr %6, align 4, !tbaa !42
  %11 = load ptr, ptr %3, align 8, !tbaa !73
  %12 = call i32 @Vec_PtrSize(ptr noundef %11)
  %13 = icmp slt i32 %10, %12
  br i1 %13, label %14, label %18

14:                                               ; preds = %9
  %15 = load ptr, ptr %3, align 8, !tbaa !73
  %16 = load i32, ptr %6, align 4, !tbaa !42
  %17 = call ptr @Vec_PtrEntry(ptr noundef %15, i32 noundef %16)
  store ptr %17, ptr %5, align 8, !tbaa !43
  br label %18

18:                                               ; preds = %14, %9
  %19 = phi i1 [ false, %9 ], [ true, %14 ]
  br i1 %19, label %20, label %36

20:                                               ; preds = %18
  %21 = load ptr, ptr %5, align 8, !tbaa !43
  %22 = call i32 @Vec_IntSize(ptr noundef %21)
  %23 = icmp slt i32 %22, 2
  br i1 %23, label %24, label %25

24:                                               ; preds = %20
  br label %33

25:                                               ; preds = %20
  %26 = load i32, ptr %7, align 4, !tbaa !42
  %27 = add nsw i32 %26, 1
  store i32 %27, ptr %7, align 4, !tbaa !42
  %28 = load ptr, ptr %5, align 8, !tbaa !43
  %29 = call i32 @Vec_IntSize(ptr noundef %28)
  %30 = load ptr, ptr %4, align 8, !tbaa !64
  %31 = load i32, ptr %30, align 4, !tbaa !42
  %32 = add nsw i32 %31, %29
  store i32 %32, ptr %30, align 4, !tbaa !42
  br label %33

33:                                               ; preds = %25, %24
  %34 = load i32, ptr %6, align 4, !tbaa !42
  %35 = add nsw i32 %34, 1
  store i32 %35, ptr %6, align 4, !tbaa !42
  br label %9, !llvm.loop !140

36:                                               ; preds = %18
  %37 = load i32, ptr %7, align 4, !tbaa !42
  call void @llvm.lifetime.end.p0(i64 4, ptr %7) #12
  call void @llvm.lifetime.end.p0(i64 4, ptr %6) #12
  call void @llvm.lifetime.end.p0(i64 8, ptr %5) #12
  ret i32 %37
}