; Function Attrs: nofree norecurse nosync nounwind memory(read, argmem: readwrite, inaccessiblemem: none) uwtable
define i32 @Vec_IntCountNonTrivial(ptr noundef readonly captures(none) %0, ptr noundef writeonly captures(none) initializes((0, 4)) %1) local_unnamed_addr #12 {
  store i32 0, ptr %1, align 4, !tbaa !43
  %3 = getelementptr i8, ptr %0, i64 4
  %.val1214 = load i32, ptr %3, align 4, !tbaa !69
  %4 = icmp sgt i32 %.val1214, 0
  br i1 %4, label %.lr.ph, label %.critedge

.lr.ph:                                           ; preds = %2
  %5 = getelementptr i8, ptr %0, i64 8
  %.val13 = load ptr, ptr %5, align 8, !tbaa !72
  br label %6

6:                                                ; preds = %.lr.ph, %15
  %.val1218 = phi i32 [ %.val1214, %.lr.ph ], [ %.val12, %15 ]
  %7 = phi i32 [ 0, %.lr.ph ], [ %16, %15 ]
  %indvars.iv = phi i64 [ 0, %.lr.ph ], [ %indvars.iv.next, %15 ]
  %.016 = phi i32 [ 0, %.lr.ph ], [ %.1, %15 ]
  %8 = getelementptr inbounds nuw ptr, ptr %.val13, i64 %indvars.iv
  %9 = load ptr, ptr %8, align 8, !tbaa !74
  %10 = getelementptr i8, ptr %9, i64 4
  %.val11 = load i32, ptr %10, align 4, !tbaa !37
  %11 = icmp slt i32 %.val11, 2
  br i1 %11, label %15, label %12

12:                                               ; preds = %6
  %13 = add nsw i32 %.016, 1
  %14 = add nsw i32 %7, %.val11
  store i32 %14, ptr %1, align 4, !tbaa !43
  %.val12.pre = load i32, ptr %3, align 4, !tbaa !69
  br label %15

15:                                               ; preds = %6, %12
  %.val12 = phi i32 [ %.val1218, %6 ], [ %.val12.pre, %12 ]
  %16 = phi i32 [ %7, %6 ], [ %14, %12 ]
  %.1 = phi i32 [ %.016, %6 ], [ %13, %12 ]
  %indvars.iv.next = add nuw nsw i64 %indvars.iv, 1
  %17 = sext i32 %.val12 to i64
  %18 = icmp slt i64 %indvars.iv.next, %17
  br i1 %18, label %6, label %.critedge, !llvm.loop !130

.critedge:                                        ; preds = %15, %2
  %.0.lcssa = phi i32 [ 0, %2 ], [ %.1, %15 ]
  ret i32 %.0.lcssa
}